target datalayout = "e-m:e-p270:32:32-p271:32:32-p272:64:64-i64:64-i128:128-f80:128-n8:16:32:64-S128"
target triple = "x86_64-pc-linux-gnu"

%union.SourceSpan = type { i64 }
%struct.Vmem = type { ptr, i64, i64 }
%struct.Signature_ = type <{ %struct.CalleeAttributes, i16, i8, i32, i32, [4 x i8], ptr }>
%struct.CalleeAttributes = type { i8 }
%struct.Decl_ = type { ptr, ptr, %union.SourceSpan, i64, %union.anon, i32, %union.anon.0, i64, ptr, ptr, ptr, %union.anon.1 }
%union.anon = type { ptr }
%union.anon.0 = type { i16 }
%union.anon.1 = type { %struct.FuncDecl }
%struct.FuncDecl = type { i32, [4 x i8], %struct.Signature_, i32, i32, %union.anon.8 }
%union.anon.8 = type { %struct.anon.9 }
%struct.anon.9 = type { i16, %union.anon.10 }
%union.anon.10 = type { ptr }
%struct.Type_ = type { i32, ptr, ptr, ptr, %union.anon.85, ptr, ptr, %union.anon.87 }
%union.anon.85 = type { ptr }
%union.anon.87 = type { %struct.TypeFunction }
%struct.TypeFunction = type { ptr, ptr, ptr }
%struct.TypeInfo_ = type { i16, ptr, %union.SourceSpan, %union.anon.56 }
%union.anon.56 = type { %struct.anon.57 }
%struct.anon.57 = type { ptr, ptr }
%struct.VarDecl_ = type { i32, i32, %union.anon.14, %union.anon.15 }
%union.anon.14 = type { ptr }
%union.anon.15 = type { %struct.anon.16 }
%struct.anon.16 = type { ptr, %union.SourceSpan }

@.str.2 = private unnamed_addr constant [36 x i8] c"FATAL ERROR %s -> in %s @ in %s:%d \00", align 1
@.str.3 = private unnamed_addr constant [22 x i8] c"Should be unreachable\00", align 1
@.str.4 = private unnamed_addr constant [111 x i8] c"generated/home/dtcxzyw/WorkSpace/Projects/compilers/llvm-opt-benchmark/bench/c3c/c3c/src/compiler/sema_decls.c\00", align 1
@type_wildcard_optional = external global ptr, align 8
@type_info_arena = external global %struct.Vmem, align 8
@.str.136 = private unnamed_addr constant [38 x i8] c"Circular dependency resolving member.\00", align 1
@.str.137 = private unnamed_addr constant [28 x i8] c"Duplicate member name '%s'.\00", align 1
@.str.138 = private unnamed_addr constant [31 x i8] c"Previous declaration was here.\00", align 1
@__func__.sema_analyse_struct_member = private unnamed_addr constant [27 x i8] c"sema_analyse_struct_member\00", align 1
@.str.155 = private unnamed_addr constant [30 x i8] c"Members cannot be of type %s.\00", align 1

; Function Attrs: nounwind uwtable
define internal ptr @type_infoptr(i32 noundef %0) #0 {
  %2 = alloca i32, align 4
  store i32 %0, ptr %2, align 4
  %3 = load ptr, ptr @type_info_arena, align 8
  %4 = load i32, ptr %2, align 4
  %5 = zext i32 %4 to i64
  %6 = getelementptr inbounds %struct.TypeInfo_, ptr %3, i64 %5
  ret ptr %6
}

; Function Attrs: nounwind uwtable
define internal zeroext i1 @sema_analyse_attributes(ptr noundef %0, ptr noundef %1, ptr noundef %2, i32 noundef %3, ptr noundef %4) #0 {
  %6 = alloca ptr, align 8
  %7 = alloca ptr, align 8
  %8 = alloca ptr, align 8
  %9 = alloca i32, align 4
  %10 = alloca ptr, align 8
  store ptr %0, ptr %6, align 8
  store ptr %1, ptr %7, align 8
  store ptr %2, ptr %8, align 8
  store i32 %3, ptr %9, align 4
  store ptr %4, ptr %10, align 8
  %11 = load ptr, ptr %6, align 8
  %12 = load ptr, ptr %7, align 8
  %13 = load ptr, ptr %8, align 8
  %14 = load i32, ptr %9, align 4
  %15 = load ptr, ptr %10, align 8
  %16 = call zeroext i1 @sema_analyse_attributes_inner(ptr noundef %11, ptr noundef %12, ptr noundef %13, i32 noundef %14, ptr noundef null, ptr noundef %15)
  ret i1 %16
}

; Function Attrs: nounwind uwtable
define internal zeroext i1 @sema_analyse_struct_member(ptr noundef %0, ptr noundef %1, ptr noundef %2, ptr noundef %3) #0 {
  %5 = alloca ptr, align 8
  %6 = alloca i1, align 1
  %7 = alloca ptr, align 8
  %8 = alloca ptr, align 8
  %9 = alloca ptr, align 8
  %10 = alloca i1, align 1
  %11 = alloca ptr, align 8
  %12 = alloca ptr, align 8
  %13 = alloca ptr, align 8
  %14 = alloca ptr, align 8
  %15 = alloca i32, align 4
  %16 = alloca ptr, align 8
  %17 = alloca ptr, align 8
  %18 = alloca ptr, align 8
  store ptr %0, ptr %11, align 8
  store ptr %1, ptr %12, align 8
  store ptr %2, ptr %13, align 8
  store ptr %3, ptr %14, align 8
  %19 = load ptr, ptr %13, align 8
  %20 = getelementptr inbounds %struct.Decl_, ptr %19, i32 0, i32 3
  %21 = load i64, ptr %20, align 8
  %22 = lshr i64 %21, 7
  %23 = and i64 %22, 7
  %24 = trunc i64 %23 to i32
  %25 = icmp eq i32 %24, 2
  br i1 %25, label %26, label %48

26:                                               ; preds = %4
  %27 = load ptr, ptr %13, align 8
  store ptr %27, ptr %5, align 8
  %28 = load ptr, ptr %5, align 8
  %29 = icmp ne ptr %28, null
  br i1 %29, label %30, label %37

30:                                               ; preds = %26
  %31 = load ptr, ptr %5, align 8
  %32 = getelementptr inbounds %struct.Decl_, ptr %31, i32 0, i32 3
  %33 = load i64, ptr %32, align 8
  %34 = and i64 %33, 127
  %35 = trunc i64 %34 to i32
  %36 = icmp ne i32 %35, 0
  br label %37

37:                                               ; preds = %30, %26
  %38 = phi i1 [ true, %26 ], [ %36, %30 ]
  br i1 %38, label %40, label %39

39:                                               ; preds = %37
  store i1 false, ptr %10, align 1
  br label %215

40:                                               ; preds = %37
  %41 = load ptr, ptr %13, align 8
  %42 = getelementptr inbounds %struct.Decl_, ptr %41, i32 0, i32 0
  %43 = load ptr, ptr %42, align 8
  %44 = icmp ne ptr %43, null
  br i1 %44, label %45, label %47

45:                                               ; preds = %40
  %46 = load ptr, ptr %13, align 8
  call void @sema_decl_stack_push(ptr noundef %46)
  br label %47

47:                                               ; preds = %45, %40
  store i1 true, ptr %10, align 1
  br label %215

48:                                               ; preds = %4
  %49 = load ptr, ptr %13, align 8
  %50 = getelementptr inbounds %struct.Decl_, ptr %49, i32 0, i32 3
  %51 = load i64, ptr %50, align 8
  %52 = lshr i64 %51, 7
  %53 = and i64 %52, 7
  %54 = trunc i64 %53 to i32
  %55 = icmp eq i32 %54, 1
  br i1 %55, label %56, label %63

56:                                               ; preds = %48
  br label %57

57:                                               ; preds = %56
  %58 = load ptr, ptr %13, align 8
  %59 = getelementptr inbounds %struct.Decl_, ptr %58, i32 0, i32 2
  %60 = getelementptr inbounds %union.SourceSpan, ptr %59, i32 0, i32 0
  %61 = load i64, ptr %60, align 8
  call void (i64, ptr, ...) @sema_error_at(i64 %61, ptr noundef @.str.136)
  store i1 false, ptr %10, align 1
  br label %215

62:                                               ; No predecessors!
  br label %63

63:                                               ; preds = %62, %48
  %64 = load ptr, ptr %12, align 8
  %65 = getelementptr inbounds %struct.Decl_, ptr %64, i32 0, i32 8
  %66 = load ptr, ptr %65, align 8
  %67 = load ptr, ptr %13, align 8
  %68 = getelementptr inbounds %struct.Decl_, ptr %67, i32 0, i32 8
  store ptr %66, ptr %68, align 8
  store i32 512, ptr %15, align 4
  %69 = load ptr, ptr %13, align 8
  %70 = getelementptr inbounds %struct.Decl_, ptr %69, i32 0, i32 3
  %71 = load i64, ptr %70, align 8
  %72 = and i64 %71, 127
  %73 = trunc i64 %72 to i32
  switch i32 %73, label %78 [
    i32 2, label %74
    i32 25, label %75
    i32 23, label %76
    i32 26, label %77
  ]

74:                                               ; preds = %63
  store i32 8192, ptr %15, align 4
  br label %81

75:                                               ; preds = %63
  store i32 32, ptr %15, align 4
  br label %81

76:                                               ; preds = %63
  store i32 16, ptr %15, align 4
  br label %81

77:                                               ; preds = %63
  br label %81

78:                                               ; preds = %63
  br label %79

79:                                               ; preds = %78
  call void (ptr, ...) @error_exit(ptr noundef @.str.2, ptr noundef @.str.3, ptr noundef @__func__.sema_analyse_struct_member, ptr noundef @.str.4, i32 noundef 202) #6
  unreachable

80:                                               ; No predecessors!
  br label %81

81:                                               ; preds = %80, %77, %76, %75, %74
  %82 = load ptr, ptr %11, align 8
  %83 = load ptr, ptr %13, align 8
  %84 = load ptr, ptr %13, align 8
  %85 = getelementptr inbounds %struct.Decl_, ptr %84, i32 0, i32 9
  %86 = load ptr, ptr %85, align 8
  %87 = load i32, ptr %15, align 4
  %88 = load ptr, ptr %14, align 8
  %89 = call zeroext i1 @sema_analyse_attributes(ptr noundef %82, ptr noundef %83, ptr noundef %86, i32 noundef %87, ptr noundef %88)
  br i1 %89, label %101, label %90

90:                                               ; preds = %81
  %91 = load ptr, ptr %13, align 8
  store ptr %91, ptr %8, align 8
  %92 = load ptr, ptr %8, align 8
  %93 = getelementptr inbounds %struct.Decl_, ptr %92, i32 0, i32 3
  %94 = load i64, ptr %93, align 8
  %95 = and i64 %94, -128
  store i64 %95, ptr %93, align 8
  %96 = load ptr, ptr %8, align 8
  %97 = getelementptr inbounds %struct.Decl_, ptr %96, i32 0, i32 3
  %98 = load i64, ptr %97, align 8
  %99 = and i64 %98, -897
  %100 = or i64 %99, 256
  store i64 %100, ptr %97, align 8
  store i1 false, ptr %10, align 1
  br label %215

101:                                              ; preds = %81
  %102 = load ptr, ptr %14, align 8
  %103 = load i8, ptr %102, align 1
  %104 = trunc i8 %103 to i1
  br i1 %104, label %105, label %106

105:                                              ; preds = %101
  store i1 true, ptr %10, align 1
  br label %215

106:                                              ; preds = %101
  %107 = load ptr, ptr %13, align 8
  %108 = getelementptr inbounds %struct.Decl_, ptr %107, i32 0, i32 0
  %109 = load ptr, ptr %108, align 8
  %110 = icmp ne ptr %109, null
  br i1 %110, label %111, label %132

111:                                              ; preds = %106
  %112 = load ptr, ptr %13, align 8
  %113 = getelementptr inbounds %struct.Decl_, ptr %112, i32 0, i32 0
  %114 = load ptr, ptr %113, align 8
  %115 = call ptr @sema_decl_stack_resolve_symbol(ptr noundef %114)
  store ptr %115, ptr %16, align 8
  %116 = load ptr, ptr %16, align 8
  %117 = icmp ne ptr %116, null
  br i1 %117, label %118, label %130

118:                                              ; preds = %111
  %119 = load ptr, ptr %13, align 8
  %120 = getelementptr inbounds %struct.Decl_, ptr %119, i32 0, i32 2
  %121 = load ptr, ptr %16, align 8
  %122 = getelementptr inbounds %struct.Decl_, ptr %121, i32 0, i32 0
  %123 = load ptr, ptr %122, align 8
  %124 = getelementptr inbounds %union.SourceSpan, ptr %120, i32 0, i32 0
  %125 = load i64, ptr %124, align 8
  call void (i64, ptr, ...) @sema_error_at(i64 %125, ptr noundef @.str.137, ptr noundef %123)
  %126 = load ptr, ptr %16, align 8
  %127 = getelementptr inbounds %struct.Decl_, ptr %126, i32 0, i32 2
  %128 = getelementptr inbounds %union.SourceSpan, ptr %127, i32 0, i32 0
  %129 = load i64, ptr %128, align 8
  call void (i64, ptr, ...) @sema_error_prev_at(i64 %129, ptr noundef @.str.138)
  store i1 false, ptr %10, align 1
  br label %215

130:                                              ; preds = %111
  %131 = load ptr, ptr %13, align 8
  call void @sema_decl_stack_push(ptr noundef %131)
  br label %132

132:                                              ; preds = %130, %106
  %133 = load ptr, ptr %13, align 8
  %134 = getelementptr inbounds %struct.Decl_, ptr %133, i32 0, i32 3
  %135 = load i64, ptr %134, align 8
  %136 = and i64 %135, 127
  %137 = trunc i64 %136 to i32
  switch i32 %137, label %212 [
    i32 26, label %138
    i32 23, label %206
    i32 25, label %206
    i32 2, label %206
  ]

138:                                              ; preds = %132
  %139 = load ptr, ptr %13, align 8
  %140 = getelementptr inbounds %struct.Decl_, ptr %139, i32 0, i32 3
  %141 = load i64, ptr %140, align 8
  %142 = and i64 %141, -897
  %143 = or i64 %142, 128
  store i64 %143, ptr %140, align 8
  %144 = load ptr, ptr %13, align 8
  %145 = getelementptr inbounds %struct.Decl_, ptr %144, i32 0, i32 11
  %146 = getelementptr inbounds %struct.VarDecl_, ptr %145, i32 0, i32 1
  %147 = load i32, ptr %146, align 4
  %148 = call ptr @type_infoptr(i32 noundef %147)
  store ptr %148, ptr %17, align 8
  %149 = load ptr, ptr %11, align 8
  %150 = load ptr, ptr %17, align 8
  %151 = call zeroext i1 @sema_resolve_type_info(ptr noundef %149, ptr noundef %150, i32 noundef 8)
  br i1 %151, label %163, label %152

152:                                              ; preds = %138
  %153 = load ptr, ptr %13, align 8
  store ptr %153, ptr %9, align 8
  %154 = load ptr, ptr %9, align 8
  %155 = getelementptr inbounds %struct.Decl_, ptr %154, i32 0, i32 3
  %156 = load i64, ptr %155, align 8
  %157 = and i64 %156, -128
  store i64 %157, ptr %155, align 8
  %158 = load ptr, ptr %9, align 8
  %159 = getelementptr inbounds %struct.Decl_, ptr %158, i32 0, i32 3
  %160 = load i64, ptr %159, align 8
  %161 = and i64 %160, -897
  %162 = or i64 %161, 256
  store i64 %162, ptr %159, align 8
  store i1 false, ptr %10, align 1
  br label %215

163:                                              ; preds = %138
  %164 = load ptr, ptr %17, align 8
  %165 = getelementptr inbounds %struct.TypeInfo_, ptr %164, i32 0, i32 1
  %166 = load ptr, ptr %165, align 8
  store ptr %166, ptr %18, align 8
  %167 = load ptr, ptr %18, align 8
  store ptr %167, ptr %7, align 8
  %168 = load ptr, ptr %7, align 8
  %169 = icmp ne ptr %168, null
  br i1 %169, label %171, label %170

170:                                              ; preds = %163
  store i1 false, ptr %6, align 1
  br label %186

171:                                              ; preds = %163
  br label %172

172:                                              ; preds = %181, %171
  %173 = load ptr, ptr %7, align 8
  %174 = load ptr, ptr @type_wildcard_optional, align 8
  %175 = icmp eq ptr %173, %174
  br i1 %175, label %176, label %177

176:                                              ; preds = %172
  store i1 true, ptr %6, align 1
  br label %186

177:                                              ; preds = %172
  %178 = load ptr, ptr %7, align 8
  %179 = load i32, ptr %178, align 8
  switch i32 %179, label %185 [
    i32 1, label %180
    i32 43, label %180
    i32 39, label %180
    i32 42, label %180
    i32 41, label %180
    i32 31, label %181
  ]

180:                                              ; preds = %177, %177, %177, %177, %177
  store i1 true, ptr %6, align 1
  br label %186

181:                                              ; preds = %177
  %182 = load ptr, ptr %7, align 8
  %183 = getelementptr inbounds %struct.Type_, ptr %182, i32 0, i32 1
  %184 = load ptr, ptr %183, align 8
  store ptr %184, ptr %7, align 8
  br label %172

185:                                              ; preds = %177
  store i1 false, ptr %6, align 1
  br label %186

186:                                              ; preds = %185, %180, %176, %170
  %187 = load i1, ptr %6, align 1
  br i1 %187, label %188, label %197

188:                                              ; preds = %186
  br label %189

189:                                              ; preds = %188
  %190 = load ptr, ptr %17, align 8
  %191 = getelementptr inbounds %struct.TypeInfo_, ptr %190, i32 0, i32 2
  %192 = load ptr, ptr %18, align 8
  %193 = call ptr @type_quoted_error_string(ptr noundef %192)
  %194 = getelementptr inbounds %union.SourceSpan, ptr %191, i32 0, i32 0
  %195 = load i64, ptr %194, align 8
  call void (i64, ptr, ...) @sema_error_at(i64 %195, ptr noundef @.str.155, ptr noundef %193)
  store i1 false, ptr %10, align 1
  br label %215

196:                                              ; No predecessors!
  br label %197

197:                                              ; preds = %196, %186
  %198 = load ptr, ptr %18, align 8
  %199 = load ptr, ptr %13, align 8
  %200 = getelementptr inbounds %struct.Decl_, ptr %199, i32 0, i32 10
  store ptr %198, ptr %200, align 8
  %201 = load ptr, ptr %13, align 8
  %202 = getelementptr inbounds %struct.Decl_, ptr %201, i32 0, i32 3
  %203 = load i64, ptr %202, align 8
  %204 = and i64 %203, -897
  %205 = or i64 %204, 256
  store i64 %205, ptr %202, align 8
  store i1 true, ptr %10, align 1
  br label %215

206:                                              ; preds = %132, %132, %132
  %207 = load ptr, ptr %11, align 8
  %208 = load ptr, ptr %13, align 8
  %209 = call zeroext i1 @sema_analyse_decl(ptr noundef %207, ptr noundef %208)
  br i1 %209, label %211, label %210

210:                                              ; preds = %206
  store i1 false, ptr %10, align 1
  br label %215

211:                                              ; preds = %206
  store i1 true, ptr %10, align 1
  br label %215

212:                                              ; preds = %132
  br label %213

213:                                              ; preds = %212
  call void (ptr, ...) @error_exit(ptr noundef @.str.2, ptr noundef @.str.3, ptr noundef @__func__.sema_analyse_struct_member, ptr noundef @.str.4, i32 noundef 250) #6
  unreachable

214:                                              ; No predecessors!
  br label %215

215:                                              ; preds = %214, %211, %210, %197, %189, %152, %118, %105, %90, %57, %47, %39
  %216 = load i1, ptr %10, align 1
  ret i1 %216
}