; Function Attrs: nounwind uwtable
define internal fastcc zeroext i1 @sema_analyse_struct_member(ptr noundef %0, ptr nocapture noundef readonly %1, ptr noundef %2, ptr nocapture noundef %3) unnamed_addr #0 {
  %5 = getelementptr inbounds i8, ptr %2, i64 24
  %6 = load i64, ptr %5, align 8
  %7 = trunc i64 %6 to i32
  %8 = lshr i32 %7, 7
  %9 = and i32 %8, 7
  switch i32 %9, label %17 [
    i32 2, label %10
    i32 1, label %14
  ]

10:                                               ; preds = %4
  %11 = and i64 %6, 127
  %.not59 = icmp eq i64 %11, 0
  br i1 %.not59, label %85, label %.critedge

.critedge:                                        ; preds = %10
  %12 = load ptr, ptr %2, align 8
  %.not60 = icmp eq ptr %12, null
  br i1 %.not60, label %85, label %13

13:                                               ; preds = %.critedge
  tail call void @sema_decl_stack_push(ptr noundef nonnull %2) #10
  br label %85

14:                                               ; preds = %4
  %15 = getelementptr inbounds i8, ptr %2, i64 16
  %16 = load i64, ptr %15, align 8
  tail call void (i64, ptr, ...) @sema_error_at(i64 %16, ptr noundef nonnull @.str.136) #10
  br label %85

17:                                               ; preds = %4
  %18 = getelementptr inbounds i8, ptr %1, i64 56
  %19 = load ptr, ptr %18, align 8
  %20 = getelementptr inbounds i8, ptr %2, i64 56
  store ptr %19, ptr %20, align 8
  %21 = and i32 %7, 127
  switch i32 %21, label %25 [
    i32 2, label %22
    i32 25, label %23
    i32 23, label %24
    i32 26, label %26
  ]

22:                                               ; preds = %17
  br label %26

23:                                               ; preds = %17
  br label %26

24:                                               ; preds = %17
  br label %26

25:                                               ; preds = %17
  tail call void (ptr, ...) @error_exit(ptr noundef nonnull @.str.2, ptr noundef nonnull @.str.3, ptr noundef nonnull @__func__.sema_analyse_struct_member, ptr noundef nonnull @.str.4, i32 noundef 202) #11
  unreachable

26:                                               ; preds = %17, %24, %23, %22
  %.051 = phi i32 [ 512, %17 ], [ 16, %24 ], [ 32, %23 ], [ 8192, %22 ]
  %27 = getelementptr inbounds i8, ptr %2, i64 64
  %28 = load ptr, ptr %27, align 8
  %29 = tail call fastcc noundef zeroext i1 @sema_analyse_attributes_inner(ptr noundef %0, ptr noundef nonnull %2, ptr noundef %28, i32 noundef %.051, ptr noundef null, ptr noundef %3)
  br i1 %29, label %34, label %30

30:                                               ; preds = %26
  %31 = load i64, ptr %5, align 8
  %32 = and i64 %31, -1024
  %33 = or disjoint i64 %32, 256
  store i64 %33, ptr %5, align 8
  br label %85

34:                                               ; preds = %26
  %35 = load i8, ptr %3, align 1
  %36 = trunc i8 %35 to i1
  br i1 %36, label %85, label %37

37:                                               ; preds = %34
  %38 = load ptr, ptr %2, align 8
  %.not = icmp eq ptr %38, null
  br i1 %.not, label %48, label %39

39:                                               ; preds = %37
  %40 = tail call ptr @sema_decl_stack_resolve_symbol(ptr noundef nonnull %38) #10
  %.not56 = icmp eq ptr %40, null
  br i1 %.not56, label %47, label %41

41:                                               ; preds = %39
  %42 = getelementptr inbounds i8, ptr %2, i64 16
  %43 = load ptr, ptr %40, align 8
  %44 = load i64, ptr %42, align 8
  tail call void (i64, ptr, ...) @sema_error_at(i64 %44, ptr noundef nonnull @.str.137, ptr noundef %43) #10
  %45 = getelementptr inbounds i8, ptr %40, i64 16
  %46 = load i64, ptr %45, align 8
  tail call void (i64, ptr, ...) @sema_error_prev_at(i64 %46, ptr noundef nonnull @.str.138) #10
  br label %85

47:                                               ; preds = %39
  tail call void @sema_decl_stack_push(ptr noundef nonnull %2) #10
  br label %48

48:                                               ; preds = %47, %37
  %49 = load i64, ptr %5, align 8
  %50 = trunc i64 %49 to i32
  %51 = and i32 %50, 127
  switch i32 %51, label %84 [
    i32 26, label %52
    i32 23, label %82
    i32 25, label %82
    i32 2, label %82
  ]

52:                                               ; preds = %48
  %53 = and i64 %49, -897
  %54 = or disjoint i64 %53, 128
  store i64 %54, ptr %5, align 8
  %55 = getelementptr inbounds i8, ptr %2, i64 84
  %56 = load i32, ptr %55, align 4
  %57 = load ptr, ptr @type_info_arena, align 8
  %58 = zext i32 %56 to i64
  %59 = getelementptr inbounds %struct.TypeInfo_, ptr %57, i64 %58
  %60 = tail call zeroext i1 @sema_resolve_type_info(ptr noundef %0, ptr noundef %59, i32 noundef 8) #10
  br i1 %60, label %65, label %61

61:                                               ; preds = %52
  %62 = load i64, ptr %5, align 8
  %63 = and i64 %62, -1024
  %64 = or disjoint i64 %63, 256
  store i64 %64, ptr %5, align 8
  br label %85

65:                                               ; preds = %52
  %66 = getelementptr inbounds i8, ptr %59, i64 8
  %67 = load ptr, ptr %66, align 8
  %.not57 = icmp eq ptr %67, null
  br i1 %.not57, label %.critedge62, label %.preheader

.preheader:                                       ; preds = %65
  %68 = load ptr, ptr @type_wildcard_optional, align 8
  %69 = icmp eq ptr %67, %68
  br i1 %69, label %._crit_edge, label %.lr.ph

.lr.ph:                                           ; preds = %.preheader, %71
  %.04963 = phi ptr [ %73, %71 ], [ %67, %.preheader ]
  %70 = load i32, ptr %.04963, align 8
  switch i32 %70, label %.critedge62 [
    i32 1, label %._crit_edge
    i32 43, label %._crit_edge
    i32 39, label %._crit_edge
    i32 42, label %._crit_edge
    i32 41, label %._crit_edge
    i32 31, label %71
  ]

71:                                               ; preds = %.lr.ph
  %72 = getelementptr inbounds i8, ptr %.04963, i64 8
  %73 = load ptr, ptr %72, align 8
  %74 = icmp eq ptr %73, %68
  br i1 %74, label %._crit_edge, label %.lr.ph

._crit_edge:                                      ; preds = %.lr.ph, %.lr.ph, %.lr.ph, %.lr.ph, %.lr.ph, %71, %.preheader
  %75 = getelementptr inbounds i8, ptr %59, i64 16
  %76 = tail call ptr @type_quoted_error_string(ptr noundef nonnull %67) #10
  %77 = load i64, ptr %75, align 8
  tail call void (i64, ptr, ...) @sema_error_at(i64 %77, ptr noundef nonnull @.str.155, ptr noundef %76) #10
  br label %85

.critedge62:                                      ; preds = %.lr.ph, %65
  %78 = getelementptr inbounds i8, ptr %2, i64 72
  store ptr %67, ptr %78, align 8
  %79 = load i64, ptr %5, align 8
  %80 = and i64 %79, -897
  %81 = or disjoint i64 %80, 256
  store i64 %81, ptr %5, align 8
  br label %85

82:                                               ; preds = %48, %48, %48
  %83 = tail call zeroext i1 @sema_analyse_decl(ptr noundef %0, ptr noundef nonnull %2)
  br label %85

84:                                               ; preds = %48
  tail call void (ptr, ...) @error_exit(ptr noundef nonnull @.str.2, ptr noundef nonnull @.str.3, ptr noundef nonnull @__func__.sema_analyse_struct_member, ptr noundef nonnull @.str.4, i32 noundef 250) #11
  unreachable

85:                                               ; preds = %82, %34, %.critedge, %13, %10, %.critedge62, %._crit_edge, %61, %41, %30, %14
  %.050 = phi i1 [ false, %14 ], [ false, %41 ], [ false, %._crit_edge ], [ true, %.critedge62 ], [ false, %61 ], [ false, %30 ], [ false, %10 ], [ true, %13 ], [ true, %.critedge ], [ true, %34 ], [ %83, %82 ]
  ret i1 %.050
}